target datalayout = "e-m:e-p270:32:32-p271:32:32-p272:64:64-i64:64-i128:128-f80:128-n8:16:32:64-S128"
target triple = "x86_64-pc-linux-gnu"

%"class.llvm::SmallVectorBase" = type { ptr, i32, i32 }
%"class.clang::ento::mpi::MPIFunctionClassifier" = type { %"class.llvm::SmallVector", %"class.llvm::SmallVector.0", %"class.llvm::SmallVector.2", %"class.llvm::SmallVector.4", %"class.llvm::SmallVector.4", %"class.llvm::SmallVector.6", %"class.llvm::SmallVector.8", ptr, ptr, ptr, ptr, ptr, ptr, ptr, ptr, ptr, ptr, ptr, ptr, ptr, ptr, ptr, ptr, ptr, ptr, ptr, ptr, ptr, ptr, ptr, ptr, ptr, ptr, ptr, ptr, ptr }
%"class.llvm::SmallVector" = type { %"class.llvm::SmallVectorImpl", %"struct.llvm::SmallVectorStorage" }
%"class.llvm::SmallVectorImpl" = type { %"class.llvm::SmallVectorTemplateBase" }
%"class.llvm::SmallVectorTemplateBase" = type { %"class.llvm::SmallVectorTemplateCommon" }
%"class.llvm::SmallVectorTemplateCommon" = type { %"class.llvm::SmallVectorBase" }
%"struct.llvm::SmallVectorStorage" = type { [96 x i8] }
%"class.llvm::SmallVector.0" = type { %"class.llvm::SmallVectorImpl", %"struct.llvm::SmallVectorStorage.1" }
%"struct.llvm::SmallVectorStorage.1" = type { [80 x i8] }
%"class.llvm::SmallVector.2" = type { %"class.llvm::SmallVectorImpl", %"struct.llvm::SmallVectorStorage.3" }
%"struct.llvm::SmallVectorStorage.3" = type { [128 x i8] }
%"class.llvm::SmallVector.4" = type { %"class.llvm::SmallVectorImpl", %"struct.llvm::SmallVectorStorage.5" }
%"struct.llvm::SmallVectorStorage.5" = type { [32 x i8] }
%"class.llvm::SmallVector.6" = type { %"class.llvm::SmallVectorImpl", %"struct.llvm::SmallVectorStorage.7" }
%"struct.llvm::SmallVectorStorage.7" = type { [48 x i8] }
%"class.llvm::SmallVector.8" = type { %"class.llvm::SmallVectorImpl", %"struct.llvm::SmallVectorStorage.9" }
%"struct.llvm::SmallVectorStorage.9" = type { [256 x i8] }

; Function Attrs: mustprogress nounwind uwtable
define dso_local noundef zeroext i1 @_ZNK5clang4ento3mpi21MPIFunctionClassifier12isReduceTypeEPKNS_14IdentifierInfoE(ptr noundef nonnull align 8 dereferenceable(1016) %0, ptr noundef %1) #0 align 2 {
  %3 = alloca ptr, align 8
  %4 = alloca ptr, align 8
  store ptr %0, ptr %3, align 8
  store ptr %1, ptr %4, align 8
  %5 = load ptr, ptr %3, align 8
  %6 = load ptr, ptr %4, align 8
  %7 = getelementptr inbounds nuw %"class.clang::ento::mpi::MPIFunctionClassifier", ptr %5, i32 0, i32 25
  %8 = load ptr, ptr %7, align 8
  %9 = icmp eq ptr %6, %8
  br i1 %9, label %25, label %10

10:                                               ; preds = %2
  %11 = load ptr, ptr %4, align 8
  %12 = getelementptr inbounds nuw %"class.clang::ento::mpi::MPIFunctionClassifier", ptr %5, i32 0, i32 26
  %13 = load ptr, ptr %12, align 8
  %14 = icmp eq ptr %11, %13
  br i1 %14, label %25, label %15

15:                                               ; preds = %10
  %16 = load ptr, ptr %4, align 8
  %17 = getelementptr inbounds nuw %"class.clang::ento::mpi::MPIFunctionClassifier", ptr %5, i32 0, i32 27
  %18 = load ptr, ptr %17, align 8
  %19 = icmp eq ptr %16, %18
  br i1 %19, label %25, label %20

20:                                               ; preds = %15
  %21 = load ptr, ptr %4, align 8
  %22 = getelementptr inbounds nuw %"class.clang::ento::mpi::MPIFunctionClassifier", ptr %5, i32 0, i32 28
  %23 = load ptr, ptr %22, align 8
  %24 = icmp eq ptr %21, %23
  br label %25

25:                                               ; preds = %20, %15, %10, %2
  %26 = phi i1 [ true, %15 ], [ true, %10 ], [ true, %2 ], [ %24, %20 ]
  ret i1 %26
}