; Function Attrs: mustprogress nofree norecurse nosync nounwind willreturn memory(argmem: read) uwtable
define dso_local noundef zeroext i1 @_ZNK5clang4ento3mpi21MPIFunctionClassifier12isReduceTypeEPKNS_14IdentifierInfoE(ptr noundef nonnull readonly align 8 captures(none) dereferenceable(1016) %0, ptr noundef readnone %1) local_unnamed_addr #1 align 2 {
  %3 = getelementptr inbounds nuw i8, ptr %0, i64 928
  %4 = load ptr, ptr %3, align 8
  %5 = icmp eq ptr %1, %4
  %6 = getelementptr inbounds nuw i8, ptr %0, i64 936
  %7 = load ptr, ptr %6, align 8
  %8 = icmp eq ptr %1, %7
  %or.cond = select i1 %5, i1 true, i1 %8
  %9 = getelementptr inbounds nuw i8, ptr %0, i64 944
  %10 = load ptr, ptr %9, align 8
  %11 = icmp eq ptr %1, %10
  %or.cond9 = select i1 %or.cond, i1 true, i1 %11
  br i1 %or.cond9, label %16, label %12

12:                                               ; preds = %2
  %13 = getelementptr inbounds nuw i8, ptr %0, i64 952
  %14 = load ptr, ptr %13, align 8
  %15 = icmp eq ptr %1, %14
  br label %16

16:                                               ; preds = %12, %2
  %17 = phi i1 [ true, %2 ], [ %15, %12 ]
  ret i1 %17
}